Certificate:
    Data:
        Version: 3 (0x2)
        Serial Number:
            40:79:d6:42:8f:4b:40:fe:50:52:b1:18:6f:f1:4c:04:fa:9f:08:dd
        Signature Algorithm: sha256WithRSAEncryption
        Issuer: CN = localhost
        Validity
            Not Before: Mar 13 06:07:16 2020 GMT
            Not After : Apr 12 06:07:16 2020 GMT
        Subject: CN = localhost
        Subject Public Key Info:
            Public Key Algorithm: rsaEncryption
                RSA Public-Key: (2048 bit)
                Modulus:
                    00:b5:f5:50:5c:9d:4c:23:04:9c:4d:b4:9c:1b:b1:
                    bd:d7:8e:59:a3:eb:e1:2c:c1:67:85:84:34:12:c9:
                    de:d2:a2:39:40:63:a4:0e:6e:d5:fd:fa:80:f3:f6:
                    1f:cb:f5:56:f4:f9:69:a5:78:df:33:7b:9a:d2:3f:
                    db:23:cc:63:87:d9:42:d6:b4:e5:9f:96:13:e9:15:
                    c5:bb:be:59:2e:1d:e5:25:01:5f:c6:61:92:50:d0:
                    0d:05:4a:5b:e9:c1:da:6c:23:b5:f6:06:4e:a3:0c:
                    4a:38:a3:b2:30:bb:1c:4c:e8:85:7d:be:c9:19:d6:
                    2e:77:f6:c3:96:6b:f9:76:86:ce:20:47:ce:21:f4:
                    c1:08:af:04:1f:4e:c1:74:75:dc:20:3c:5b:ea:e5:
                    bc:7a:40:e1:78:aa:e9:de:68:a5:1e:35:b3:05:b4:
                    33:ee:fc:ec:ef:d6:87:e4:13:a2:91:a4:76:ab:96:
                    ef:5d:f7:7e:6d:84:20:2f:c5:aa:4e:35:9f:54:1d:
                    62:07:f6:53:bc:a2:23:5e:6d:21:0c:07:a7:d8:2a:
                    a2:3b:49:b4:d8:23:ba:aa:55:27:c5:6e:1e:d7:33:
                    5c:3d:18:94:6a:81:90:e9:22:48:92:a6:50:45:c1:
                    99:2a:c2:22:35:fd:4c:88:b5:30:74:25:7c:d5:ce:
                    0c:e3
                Exponent: 65537 (0x10001)
        X509v3 extensions:
            X509v3 Subject Key Identifier: 
                7D:EB:B5:89:5E:FC:A5:27:44:89:63:82:D6:59:B8:62:D7:0D:12:B5
            X509v3 Authority Key Identifier: 
                keyid:7D:EB:B5:89:5E:FC:A5:27:44:89:63:82:D6:59:B8:62:D7:0D:12:B5

            X509v3 Basic Constraints: critical
                CA:TRUE
    Signature Algorithm: sha256WithRSAEncryption
         5b:d6:1a:6d:f7:d4:0f:00:90:28:fb:fd:17:8f:4d:1a:1a:e1:
         c4:3d:a0:1e:e0:16:41:41:b1:d1:d5:3c:2c:c8:2a:bf:28:98:
         ae:9f:26:22:45:05:17:7c:e3:58:90:15:79:87:27:bb:ad:5e:
         d5:45:64:21:41:09:34:2a:1f:f2:cd:a6:ea:3d:98:12:0c:92:
         5f:cf:08:91:fb:1d:ff:e2:5b:a7:da:6c:bf:bf:01:c8:35:04:
         a2:c4:a5:7f:8f:42:4d:32:82:de:5f:5f:5e:d6:4b:a0:66:5f:
         21:fc:e4:ad:3c:52:cd:6f:98:75:a9:a3:e3:a8:48:45:1f:62:
         ec:8d:02:e2:63:13:03:0f:f5:94:03:75:5b:a0:c7:32:fc:10:
         0c:80:4f:d8:7d:3e:ef:0d:5f:2f:1f:b1:a0:92:5e:2b:20:55:
         8d:3a:62:ca:3e:2e:11:26:da:4f:89:38:32:69:11:6c:a5:86:
         88:1a:8d:52:7e:db:fb:3c:02:85:3f:13:92:99:8b:00:a6:37:
         61:9c:93:47:5a:42:8f:f1:4a:62:cc:9a:0d:8b:67:a4:97:72:
         84:dc:07:88:4f:83:19:f8:8e:71:91:bf:8b:ac:92:e9:57:21:
         c5:64:92:94:fc:13:77:a4:01:e1:0c:62:8e:99:d4:6f:59:d9:
         ab:2f:ce:25
-----BEGIN CERTIFICATE-----
MIIDCTCCAfGgAwIBAgIUQHnWQo9LQP5QUrEYb/FMBPqfCN0wDQYJKoZIhvcNAQEL
BQAwFDESMBAGA1UEAwwJbG9jYWxob3N0MB4XDTIwMDMxMzA2MDcxNloXDTIwMDQx
MjA2MDcxNlowFDESMBAGA1UEAwwJbG9jYWxob3N0MIIBIjANBgkqhkiG9w0BAQEF
AAOCAQ8AMIIBCgKCAQEAtfVQXJ1MIwScTbScG7G9145Zo+vhLMFnhYQ0Esne0qI5
QGOkDm7V/fqA8/Yfy/VW9PlppXjfM3ua0j/bI8xjh9lC1rTln5YT6RXFu75ZLh3l
JQFfxmGSUNANBUpb6cHabCO19gZOowxKOKOyMLscTOiFfb7JGdYud/bDlmv5dobO
IEfOIfTBCK8EH07BdHXcIDxb6uW8ekDheKrp3milHjWzBbQz7vzs79aH5BOikaR2
q5bvXfd+bYQgL8WqTjWfVB1iB/ZTvKIjXm0hDAen2CqiO0m02CO6qlUnxW4e1zNc
PRiUaoGQ6SJIkqZQRcGZKsIiNf1MiLUwdCV81c4M4wIDAQABo1MwUTAdBgNVHQ4E
FgQUfeu1iV78pSdEiWOC1lm4YtcNErUwHwYDVR0jBBgwFoAUfeu1iV78pSdEiWOC
1lm4YtcNErUwDwYDVR0TAQH/BAUwAwEB/zANBgkqhkiG9w0BAQsFAAOCAQEAW9Ya
bffUDwCQKPv9F49NGhrhxD2gHuAWQUGx0dU8LMgqvyiYrp8mIkUFF3zjWJAVeYcn
u61e1UVkIUEJNCof8s2m6j2YEgySX88Ikfsd/+Jbp9psv78ByDUEosSlf49CTTKC
3l9fXtZLoGZfIfzkrTxSzW+Ydamj46hIRR9i7I0C4mMTAw/1lAN1W6DHMvwQDIBP
2H0+7w1fLx+xoJJeKyBVjTpiyj4uESbaT4k4MmkRbKWGiBqNUn7b+zwChT8TkpmL
AKY3YZyTR1pCj/FKYsyaDYtnpJdyhNwHiE+DGfiOcZG/i6yS6VchxWSSlPwTd6QB
4QxijpnUb1nZqy/OJQ==
-----END CERTIFICATE-----
